target datalayout = "e-m:e-p270:32:32-p271:32:32-p272:64:64-i64:64-i128:128-f80:128-n8:16:32:64-S128"
target triple = "x86_64-pc-linux-gnu"

%struct.packet_netlink_data = type { i32, i32, i16 }

@dissect_sock_diag_meminfo.hfs = internal global [6 x ptr] [ptr @hf_netlink_sock_diag_rmem_alloc, ptr @hf_netlink_sock_diag_rcvbuf, ptr @hf_netlink_sock_diag_wmem_alloc, ptr @hf_netlink_sock_diag_sndbuf, ptr @hf_netlink_sock_diag_fwd_alloc, ptr @hf_netlink_sock_diag_wmem_queued], align 16

; Function Attrs: null_pointer_is_valid sspstrong uwtable
define internal i32 @dissect_sock_diag_meminfo(ptr noundef %0, ptr noundef %1, ptr noundef %2, ptr noundef %3, i32 noundef %4, i32 noundef %5) #0 {
  %7 = alloca i32, align 4
  %8 = alloca ptr, align 8
  %9 = alloca ptr, align 8
  %10 = alloca ptr, align 8
  %11 = alloca ptr, align 8
  %12 = alloca i32, align 4
  %13 = alloca i32, align 4
  %14 = alloca i32, align 4
  %15 = alloca i32, align 4
  store ptr %0, ptr %8, align 8
  store ptr %1, ptr %9, align 8
  store ptr %2, ptr %10, align 8
  store ptr %3, ptr %11, align 8
  store i32 %4, ptr %12, align 4
  store i32 %5, ptr %13, align 4
  call void @llvm.lifetime.start.p0(i64 4, ptr %14) #4
  %16 = load i32, ptr %13, align 4
  %17 = icmp eq i32 %16, 0
  br i1 %17, label %22, label %18

18:                                               ; preds = %6
  %19 = load i32, ptr %13, align 4
  %20 = srem i32 %19, 4
  %21 = icmp ne i32 %20, 0
  br i1 %21, label %22, label %23

22:                                               ; preds = %18, %6
  store i32 0, ptr %7, align 4
  store i32 1, ptr %15, align 4
  br label %58

23:                                               ; preds = %18
  store i32 0, ptr %14, align 4
  br label %24

24:                                               ; preds = %50, %23
  %25 = load i32, ptr %13, align 4
  %26 = icmp sge i32 %25, 4
  br i1 %26, label %27, label %31

27:                                               ; preds = %24
  %28 = load i32, ptr %14, align 4
  %29 = zext i32 %28 to i64
  %30 = icmp ult i64 %29, 6
  br label %31

31:                                               ; preds = %27, %24
  %32 = phi i1 [ false, %24 ], [ %30, %27 ]
  br i1 %32, label %33, label %53

33:                                               ; preds = %31
  %34 = load ptr, ptr %8, align 8
  %35 = load i32, ptr %14, align 4
  %36 = zext i32 %35 to i64
  %37 = getelementptr [6 x ptr], ptr @dissect_sock_diag_meminfo.hfs, i64 0, i64 %36
  %38 = load ptr, ptr %37, align 8
  %39 = load i32, ptr %38, align 4
  %40 = load ptr, ptr %11, align 8
  %41 = load i32, ptr %12, align 4
  %42 = load ptr, ptr %10, align 8
  %43 = getelementptr inbounds nuw %struct.packet_netlink_data, ptr %42, i32 0, i32 1
  %44 = load i32, ptr %43, align 4
  %45 = call ptr @proto_tree_add_item(ptr noundef %34, i32 noundef %39, ptr noundef %40, i32 noundef %41, i32 noundef 4, i32 noundef %44)
  %46 = load i32, ptr %12, align 4
  %47 = add i32 %46, 4
  store i32 %47, ptr %12, align 4
  %48 = load i32, ptr %13, align 4
  %49 = sub i32 %48, 4
  store i32 %49, ptr %13, align 4
  br label %50

50:                                               ; preds = %33
  %51 = load i32, ptr %14, align 4
  %52 = add i32 %51, 1
  store i32 %52, ptr %14, align 4
  br label %24, !llvm.loop !10

53:                                               ; preds = %31
  %54 = load i32, ptr %13, align 4
  %55 = icmp ne i32 %54, 0
  br i1 %55, label %56, label %57

56:                                               ; preds = %53
  br label %57

57:                                               ; preds = %56, %53
  store i32 1, ptr %7, align 4
  store i32 1, ptr %15, align 4
  br label %58

58:                                               ; preds = %57, %22
  call void @llvm.lifetime.end.p0(i64 4, ptr %14) #4
  %59 = load i32, ptr %7, align 4
  ret i32 %59
}

; Function Attrs: null_pointer_is_valid sspstrong uwtable
define internal i32 @dissect_sock_diag_netlink_attributes(ptr noundef %0, ptr noundef %1, ptr noundef %2, ptr noundef %3, i32 noundef %4, i32 noundef %5, i32 noundef %6) #0 {
  %8 = alloca i32, align 4
  %9 = alloca ptr, align 8
  %10 = alloca ptr, align 8
  %11 = alloca ptr, align 8
  %12 = alloca ptr, align 8
  %13 = alloca i32, align 4
  %14 = alloca i32, align 4
  %15 = alloca i32, align 4
  %16 = alloca i32, align 4
  %17 = alloca ptr, align 8
  %18 = alloca i32, align 4
  store ptr %0, ptr %9, align 8
  store ptr %1, ptr %10, align 8
  store ptr %2, ptr %11, align 8
  store ptr %3, ptr %12, align 8
  store i32 %4, ptr %13, align 4
  store i32 %5, ptr %14, align 4
  store i32 %6, ptr %15, align 4
  call void @llvm.lifetime.start.p0(i64 4, ptr %16) #4
  %19 = load i32, ptr %13, align 4
  store i32 %19, ptr %16, align 4
  call void @llvm.lifetime.start.p0(i64 8, ptr %17) #4
  %20 = load ptr, ptr %10, align 8
  store ptr %20, ptr %17, align 8
  %21 = load i32, ptr %16, align 4
  switch i32 %21, label %31 [
    i32 0, label %22
    i32 1, label %30
    i32 2, label %30
    i32 3, label %30
  ]

22:                                               ; preds = %7
  %23 = load ptr, ptr %12, align 8
  %24 = load ptr, ptr %17, align 8
  %25 = load ptr, ptr %11, align 8
  %26 = load ptr, ptr %9, align 8
  %27 = load i32, ptr %14, align 4
  %28 = load i32, ptr %15, align 4
  %29 = call i32 @dissect_sock_diag_meminfo(ptr noundef %23, ptr noundef %24, ptr noundef %25, ptr noundef %26, i32 noundef %27, i32 noundef %28)
  store i32 %29, ptr %8, align 4
  store i32 1, ptr %18, align 4
  br label %32

30:                                               ; preds = %7, %7, %7
  br label %31

31:                                               ; preds = %7, %30
  store i32 0, ptr %8, align 4
  store i32 1, ptr %18, align 4
  br label %32

32:                                               ; preds = %31, %22
  call void @llvm.lifetime.end.p0(i64 8, ptr %17) #4
  call void @llvm.lifetime.end.p0(i64 4, ptr %16) #4
  %33 = load i32, ptr %8, align 4
  ret i32 %33
}