; Function Attrs: null_pointer_is_valid sspstrong uwtable
define internal range(i32 0, 2) i32 @dissect_sock_diag_netlink_attributes(ptr noundef %0, ptr readnone captures(none) %1, ptr noundef readonly captures(none) %2, ptr noundef %3, i32 noundef %4, i32 noundef %5, i32 noundef %6) #0 {
  %cond = icmp eq i32 %4, 0
  br i1 %cond, label %8, label %dissect_sock_diag_meminfo.exit

8:                                                ; preds = %7
  %9 = icmp ne i32 %6, 0
  %10 = and i32 %6, 3
  %.not.i = icmp eq i32 %10, 0
  %or.cond.i = and i1 %9, %.not.i
  br i1 %or.cond.i, label %.preheader.i, label %dissect_sock_diag_meminfo.exit

.preheader.i:                                     ; preds = %8
  %11 = icmp sgt i32 %6, 3
  br i1 %11, label %.lr.ph.i, label %dissect_sock_diag_meminfo.exit

.lr.ph.i:                                         ; preds = %.preheader.i
  %12 = getelementptr inbounds nuw i8, ptr %2, i64 4
  %13 = add nsw i32 %6, -4
  %14 = lshr exact i32 %13, 2
  %15 = tail call i32 @llvm.umin.i32(i32 %14, i32 5)
  %narrow = add nuw nsw i32 %15, 1
  %16 = zext nneg i32 %narrow to i64
  br label %17

17:                                               ; preds = %17, %.lr.ph.i
  %indvars.iv.i = phi i64 [ 0, %.lr.ph.i ], [ %indvars.iv.next.i, %17 ]
  %.0141.i = phi i32 [ %5, %.lr.ph.i ], [ %23, %17 ]
  %18 = getelementptr [6 x ptr], ptr @dissect_sock_diag_meminfo.hfs, i64 0, i64 %indvars.iv.i
  %19 = load ptr, ptr %18, align 8
  %20 = load i32, ptr %19, align 4
  %21 = load i32, ptr %12, align 4
  %22 = tail call ptr @proto_tree_add_item(ptr noundef %3, i32 noundef %20, ptr noundef %0, i32 noundef %.0141.i, i32 noundef 4, i32 noundef %21)
  %23 = add i32 %.0141.i, 4
  %indvars.iv.next.i = add nuw nsw i64 %indvars.iv.i, 1
  %exitcond.not = icmp eq i64 %indvars.iv.next.i, %16
  br i1 %exitcond.not, label %dissect_sock_diag_meminfo.exit, label %17, !llvm.loop !8

dissect_sock_diag_meminfo.exit:                   ; preds = %17, %.preheader.i, %8, %7
  %.0 = phi i32 [ 0, %7 ], [ 0, %8 ], [ 1, %.preheader.i ], [ 1, %17 ]
  ret i32 %.0
}